; Function Attrs: null_pointer_is_valid sspstrong uwtable
define internal void @rev_req_gps_alm_correction(ptr noundef %0, ptr noundef %1, ptr noundef %2, i32 noundef %3, i32 noundef %4) #0 {
  %6 = icmp ult i32 %3, 2
  br i1 %6, label %7, label %9

7:                                                ; preds = %5
  %8 = tail call ptr @proto_tree_add_expert(ptr noundef %2, ptr noundef %1, ptr noundef nonnull @ei_ansi_801_short_data, ptr noundef %0, i32 noundef %4, i32 noundef %3)
  br label %19

9:                                                ; preds = %5
  %10 = load i32, ptr @hf_ansi_801_time_of_almanac, align 4
  %11 = tail call ptr @proto_tree_add_item(ptr noundef %2, i32 noundef %10, ptr noundef %0, i32 noundef %4, i32 noundef 1, i32 noundef 0)
  %12 = add i32 %4, 1
  %13 = load i32, ptr @hf_ansi_801_gps_week_number, align 4
  %14 = tail call ptr @proto_tree_add_item(ptr noundef %2, i32 noundef %13, ptr noundef %0, i32 noundef %12, i32 noundef 1, i32 noundef 0)
  %.not = icmp eq i32 %3, 2
  br i1 %.not, label %19, label %15

15:                                               ; preds = %9
  %16 = add i32 %4, 2
  %17 = add i32 %3, -2
  %18 = tail call ptr @proto_tree_add_expert(ptr noundef %2, ptr noundef %1, ptr noundef nonnull @ei_ansi_801_extraneous_data, ptr noundef %0, i32 noundef %16, i32 noundef %17)
  br label %19

19:                                               ; preds = %9, %15, %7
  ret void
}